target datalayout = "e-m:e-p270:32:32-p271:32:32-p272:64:64-i64:64-i128:128-f80:128-n8:16:32:64-S128"
target triple = "x86_64-unknown-linux-gnu"

%struct.btBroadphasePair = type { ptr, ptr, ptr, %union.anon.4 }
%union.anon.4 = type { ptr }
%class.CleanPairCallback = type { %struct.btOverlapCallback, ptr, ptr, ptr }
%struct.btOverlapCallback = type { ptr }

; Function Attrs: mustprogress uwtable
define internal noundef zeroext i1 @_ZZN28btHashedOverlappingPairCache19cleanProxyFromPairsEP17btBroadphaseProxyP12btDispatcherEN17CleanPairCallback14processOverlapER16btBroadphasePair(ptr noundef nonnull align 8 dereferenceable(32) %this, ptr noundef nonnull align 8 dereferenceable(32) %pair) unnamed_addr #2 align 2 {
entry:
  %this.addr = alloca ptr, align 8
  %pair.addr = alloca ptr, align 8
  store ptr %this, ptr %this.addr, align 8
  store ptr %pair, ptr %pair.addr, align 8
  %this1 = load ptr, ptr %this.addr, align 8
  %0 = load ptr, ptr %pair.addr, align 8
  %m_pProxy0 = getelementptr inbounds %struct.btBroadphasePair, ptr %0, i32 0, i32 0
  %1 = load ptr, ptr %m_pProxy0, align 8
  %m_cleanProxy = getelementptr inbounds %class.CleanPairCallback, ptr %this1, i32 0, i32 1
  %2 = load ptr, ptr %m_cleanProxy, align 8
  %cmp = icmp eq ptr %1, %2
  br i1 %cmp, label %if.then, label %lor.lhs.false

lor.lhs.false:                                    ; preds = %entry
  %3 = load ptr, ptr %pair.addr, align 8
  %m_pProxy1 = getelementptr inbounds %struct.btBroadphasePair, ptr %3, i32 0, i32 1
  %4 = load ptr, ptr %m_pProxy1, align 8
  %m_cleanProxy2 = getelementptr inbounds %class.CleanPairCallback, ptr %this1, i32 0, i32 1
  %5 = load ptr, ptr %m_cleanProxy2, align 8
  %cmp3 = icmp eq ptr %4, %5
  br i1 %cmp3, label %if.then, label %if.end

if.then:                                          ; preds = %lor.lhs.false, %entry
  %m_pairCache = getelementptr inbounds %class.CleanPairCallback, ptr %this1, i32 0, i32 2
  %6 = load ptr, ptr %m_pairCache, align 8
  %7 = load ptr, ptr %pair.addr, align 8
  %m_dispatcher = getelementptr inbounds %class.CleanPairCallback, ptr %this1, i32 0, i32 3
  %8 = load ptr, ptr %m_dispatcher, align 8
  %vtable = load ptr, ptr %6, align 8
  %vfn = getelementptr inbounds ptr, ptr %vtable, i64 8
  %9 = load ptr, ptr %vfn, align 8
  call void %9(ptr noundef nonnull align 8 dereferenceable(8) %6, ptr noundef nonnull align 8 dereferenceable(32) %7, ptr noundef %8)
  br label %if.end

if.end:                                           ; preds = %if.then, %lor.lhs.false
  ret i1 false
}